target datalayout = "e-m:e-p270:32:32-p271:32:32-p272:64:64-i64:64-i128:128-f80:128-n8:16:32:64-S128"
target triple = "x86_64-pc-linux-gnu"

%struct.LZWEncodeState = type { i32, i32, [16411 x %struct.Code], i32, i32, i32, %struct.PutBitContext, i32, i32, i32, i32, i32, i32 }
%struct.Code = type { i32, i32, i8 }
%struct.PutBitContext = type { i32, i32, ptr, ptr, ptr }

@.str = private unnamed_addr constant [30 x i8] c"Assertion %s failed at %s:%d\0A\00", align 1
@.str.1 = private unnamed_addr constant [36 x i8] c"s->maxbits >= 9 && s->maxbits <= 12\00", align 1
@.str.2 = private unnamed_addr constant [20 x i8] c"libavcodec/lzwenc.c\00", align 1

; Function Attrs: inlinehint nounwind uwtable
define internal void @init_put_bits(ptr noundef %0, ptr noundef %1, i32 noundef %2) #1 {
  %4 = alloca ptr, align 8
  %5 = alloca ptr, align 8
  %6 = alloca i32, align 4
  store ptr %0, ptr %4, align 8, !tbaa !25
  store ptr %1, ptr %5, align 8, !tbaa !9
  store i32 %2, ptr %6, align 4, !tbaa !11
  %7 = load i32, ptr %6, align 4, !tbaa !11
  %8 = icmp slt i32 %7, 0
  br i1 %8, label %9, label %10

9:                                                ; preds = %3
  store i32 0, ptr %6, align 4, !tbaa !11
  store ptr null, ptr %5, align 8, !tbaa !9
  br label %10

10:                                               ; preds = %9, %3
  %11 = load ptr, ptr %5, align 8, !tbaa !9
  %12 = load ptr, ptr %4, align 8, !tbaa !25
  %13 = getelementptr inbounds nuw %struct.PutBitContext, ptr %12, i32 0, i32 2
  store ptr %11, ptr %13, align 8, !tbaa !27
  %14 = load ptr, ptr %4, align 8, !tbaa !25
  %15 = getelementptr inbounds nuw %struct.PutBitContext, ptr %14, i32 0, i32 2
  %16 = load ptr, ptr %15, align 8, !tbaa !27
  %17 = load i32, ptr %6, align 4, !tbaa !11
  %18 = sext i32 %17 to i64
  %19 = getelementptr inbounds i8, ptr %16, i64 %18
  %20 = load ptr, ptr %4, align 8, !tbaa !25
  %21 = getelementptr inbounds nuw %struct.PutBitContext, ptr %20, i32 0, i32 4
  store ptr %19, ptr %21, align 8, !tbaa !28
  %22 = load ptr, ptr %4, align 8, !tbaa !25
  %23 = getelementptr inbounds nuw %struct.PutBitContext, ptr %22, i32 0, i32 2
  %24 = load ptr, ptr %23, align 8, !tbaa !27
  %25 = load ptr, ptr %4, align 8, !tbaa !25
  %26 = getelementptr inbounds nuw %struct.PutBitContext, ptr %25, i32 0, i32 3
  store ptr %24, ptr %26, align 8, !tbaa !29
  %27 = load ptr, ptr %4, align 8, !tbaa !25
  %28 = getelementptr inbounds nuw %struct.PutBitContext, ptr %27, i32 0, i32 1
  store i32 32, ptr %28, align 4, !tbaa !30
  %29 = load ptr, ptr %4, align 8, !tbaa !25
  %30 = getelementptr inbounds nuw %struct.PutBitContext, ptr %29, i32 0, i32 0
  store i32 0, ptr %30, align 8, !tbaa !31
  ret void
}

; Function Attrs: nounwind uwtable
define void @ff_lzw_encode_init(ptr noundef %0, ptr noundef %1, i32 noundef %2, i32 noundef %3, i32 noundef %4, i32 noundef %5) #0 {
  %7 = alloca ptr, align 8
  %8 = alloca ptr, align 8
  %9 = alloca i32, align 4
  %10 = alloca i32, align 4
  %11 = alloca i32, align 4
  %12 = alloca i32, align 4
  store ptr %0, ptr %7, align 8, !tbaa !4
  store ptr %1, ptr %8, align 8, !tbaa !9
  store i32 %2, ptr %9, align 4, !tbaa !11
  store i32 %3, ptr %10, align 4, !tbaa !11
  store i32 %4, ptr %11, align 4, !tbaa !11
  store i32 %5, ptr %12, align 4, !tbaa !11
  %13 = load ptr, ptr %7, align 8, !tbaa !4
  %14 = getelementptr inbounds nuw %struct.LZWEncodeState, ptr %13, i32 0, i32 0
  store i32 256, ptr %14, align 8, !tbaa !13
  %15 = load ptr, ptr %7, align 8, !tbaa !4
  %16 = getelementptr inbounds nuw %struct.LZWEncodeState, ptr %15, i32 0, i32 1
  store i32 257, ptr %16, align 4, !tbaa !16
  %17 = load i32, ptr %10, align 4, !tbaa !11
  %18 = load ptr, ptr %7, align 8, !tbaa !4
  %19 = getelementptr inbounds nuw %struct.LZWEncodeState, ptr %18, i32 0, i32 7
  store i32 %17, ptr %19, align 8, !tbaa !17
  %20 = load ptr, ptr %7, align 8, !tbaa !4
  %21 = getelementptr inbounds nuw %struct.LZWEncodeState, ptr %20, i32 0, i32 6
  %22 = load ptr, ptr %8, align 8, !tbaa !9
  %23 = load i32, ptr %9, align 4, !tbaa !11
  call void @init_put_bits(ptr noundef %21, ptr noundef %22, i32 noundef %23)
  %24 = load i32, ptr %9, align 4, !tbaa !11
  %25 = load ptr, ptr %7, align 8, !tbaa !4
  %26 = getelementptr inbounds nuw %struct.LZWEncodeState, ptr %25, i32 0, i32 5
  store i32 %24, ptr %26, align 4, !tbaa !18
  br label %27

27:                                               ; preds = %6
  %28 = load ptr, ptr %7, align 8, !tbaa !4
  %29 = getelementptr inbounds nuw %struct.LZWEncodeState, ptr %28, i32 0, i32 7
  %30 = load i32, ptr %29, align 8, !tbaa !17
  %31 = icmp sge i32 %30, 9
  br i1 %31, label %32, label %37

32:                                               ; preds = %27
  %33 = load ptr, ptr %7, align 8, !tbaa !4
  %34 = getelementptr inbounds nuw %struct.LZWEncodeState, ptr %33, i32 0, i32 7
  %35 = load i32, ptr %34, align 8, !tbaa !17
  %36 = icmp sle i32 %35, 12
  br i1 %36, label %38, label %37

37:                                               ; preds = %32, %27
  call void (ptr, i32, ptr, ...) @av_log(ptr noundef null, i32 noundef 0, ptr noundef @.str, ptr noundef @.str.1, ptr noundef @.str.2, i32 noundef 214)
  call void @abort() #6
  unreachable

38:                                               ; preds = %32
  br label %39

39:                                               ; preds = %38
  %40 = load ptr, ptr %7, align 8, !tbaa !4
  %41 = getelementptr inbounds nuw %struct.LZWEncodeState, ptr %40, i32 0, i32 7
  %42 = load i32, ptr %41, align 8, !tbaa !17
  %43 = shl i32 1, %42
  %44 = load ptr, ptr %7, align 8, !tbaa !4
  %45 = getelementptr inbounds nuw %struct.LZWEncodeState, ptr %44, i32 0, i32 8
  store i32 %43, ptr %45, align 4, !tbaa !19
  %46 = load ptr, ptr %7, align 8, !tbaa !4
  %47 = getelementptr inbounds nuw %struct.LZWEncodeState, ptr %46, i32 0, i32 9
  store i32 0, ptr %47, align 8, !tbaa !20
  %48 = load ptr, ptr %7, align 8, !tbaa !4
  %49 = getelementptr inbounds nuw %struct.LZWEncodeState, ptr %48, i32 0, i32 10
  store i32 -1, ptr %49, align 4, !tbaa !21
  %50 = load ptr, ptr %7, align 8, !tbaa !4
  %51 = getelementptr inbounds nuw %struct.LZWEncodeState, ptr %50, i32 0, i32 4
  store i32 9, ptr %51, align 8, !tbaa !22
  %52 = load i32, ptr %11, align 4, !tbaa !11
  %53 = load ptr, ptr %7, align 8, !tbaa !4
  %54 = getelementptr inbounds nuw %struct.LZWEncodeState, ptr %53, i32 0, i32 11
  store i32 %52, ptr %54, align 8, !tbaa !23
  %55 = load i32, ptr %12, align 4, !tbaa !11
  %56 = load ptr, ptr %7, align 8, !tbaa !4
  %57 = getelementptr inbounds nuw %struct.LZWEncodeState, ptr %56, i32 0, i32 12
  store i32 %55, ptr %57, align 4, !tbaa !24
  ret void
}