; Function Attrs: nounwind uwtable
define void @ff_lzw_encode_init(ptr noundef writeonly captures(none) initializes((0, 8), (196948, 196988)) %0, ptr noundef %1, i32 noundef %2, i32 noundef %3, i32 noundef %4, i32 noundef %5) local_unnamed_addr #0 {
  store i32 256, ptr %0, align 8, !tbaa !4
  %7 = getelementptr inbounds nuw i8, ptr %0, i64 4
  store i32 257, ptr %7, align 4, !tbaa !12
  %8 = getelementptr inbounds nuw i8, ptr %0, i64 196984
  store i32 %3, ptr %8, align 8, !tbaa !13
  %9 = getelementptr inbounds nuw i8, ptr %0, i64 196952
  %10 = icmp slt i32 %2, 0
  %spec.select.i = select i1 %10, ptr null, ptr %1
  %spec.select11.i = tail call i32 @llvm.smax.i32(i32 %2, i32 0)
  %11 = getelementptr inbounds nuw i8, ptr %0, i64 196960
  store ptr %spec.select.i, ptr %11, align 8, !tbaa !14
  %12 = zext nneg i32 %spec.select11.i to i64
  %13 = getelementptr inbounds nuw i8, ptr %spec.select.i, i64 %12
  %14 = getelementptr inbounds nuw i8, ptr %0, i64 196976
  store ptr %13, ptr %14, align 8, !tbaa !15
  %15 = getelementptr inbounds nuw i8, ptr %0, i64 196968
  store ptr %spec.select.i, ptr %15, align 8, !tbaa !16
  %16 = getelementptr inbounds nuw i8, ptr %0, i64 196956
  store i32 32, ptr %16, align 4, !tbaa !17
  store i32 0, ptr %9, align 8, !tbaa !18
  %17 = getelementptr inbounds nuw i8, ptr %0, i64 196948
  store i32 %2, ptr %17, align 4, !tbaa !19
  %18 = add i32 %3, -9
  %or.cond = icmp ult i32 %18, 4
  br i1 %or.cond, label %20, label %19

19:                                               ; preds = %6
  tail call void (ptr, i32, ptr, ...) @av_log(ptr noundef null, i32 noundef 0, ptr noundef nonnull @.str, ptr noundef nonnull @.str.1, ptr noundef nonnull @.str.2, i32 noundef 214) #4
  tail call void @abort() #5
  unreachable

20:                                               ; preds = %6
  %21 = shl nuw nsw i32 1, %3
  %22 = getelementptr inbounds nuw i8, ptr %0, i64 196988
  store i32 %21, ptr %22, align 4, !tbaa !20
  %23 = getelementptr inbounds nuw i8, ptr %0, i64 196992
  store i32 0, ptr %23, align 8, !tbaa !21
  %24 = getelementptr inbounds nuw i8, ptr %0, i64 196996
  store i32 -1, ptr %24, align 4, !tbaa !22
  %25 = getelementptr inbounds nuw i8, ptr %0, i64 196944
  store i32 9, ptr %25, align 8, !tbaa !23
  %26 = getelementptr inbounds nuw i8, ptr %0, i64 197000
  store i32 %4, ptr %26, align 8, !tbaa !24
  %27 = getelementptr inbounds nuw i8, ptr %0, i64 197004
  store i32 %5, ptr %27, align 4, !tbaa !25
  ret void
}